; Function Attrs: nounwind uwtable
define range(i32 -29, 1) i32 @CVodeSetProjFrequency(ptr noundef %0, i64 noundef %1) local_unnamed_addr #0 {
  %3 = icmp eq ptr %0, null
  br i1 %3, label %4, label %5

4:                                                ; preds = %2
  tail call void (ptr, i32, i32, ptr, ptr, ptr, ...) @cvProcessError(ptr noundef null, i32 noundef -21, i32 noundef 438, ptr noundef nonnull @__func__.CVodeSetProjFrequency, ptr noundef nonnull @.str, ptr noundef nonnull @.str.1) #8
  br label %cvAccessProjMem.exit.thread

5:                                                ; preds = %2
  %6 = getelementptr inbounds nuw i8, ptr %0, i64 1504
  %7 = load ptr, ptr %6, align 8
  %8 = icmp eq ptr %7, null
  br i1 %8, label %9, label %cvAccessProjMem.exit

9:                                                ; preds = %5
  tail call void (ptr, i32, i32, ptr, ptr, ptr, ...) @cvProcessError(ptr noundef nonnull %0, i32 noundef -29, i32 noundef 446, ptr noundef nonnull @__func__.CVodeSetProjFrequency, ptr noundef nonnull @.str, ptr noundef nonnull @.str.5) #8
  br label %cvAccessProjMem.exit.thread

cvAccessProjMem.exit:                             ; preds = %5
  %10 = icmp slt i64 %1, 0
  %11 = getelementptr inbounds nuw i8, ptr %0, i64 1512
  br i1 %10, label %12, label %14

12:                                               ; preds = %cvAccessProjMem.exit
  %13 = getelementptr inbounds nuw i8, ptr %7, i64 16
  store i64 1, ptr %13, align 8
  store i32 1, ptr %11, align 8
  br label %cvAccessProjMem.exit.thread

14:                                               ; preds = %cvAccessProjMem.exit
  %15 = icmp eq i64 %1, 0
  %16 = getelementptr inbounds nuw i8, ptr %7, i64 16
  br i1 %15, label %17, label %18

17:                                               ; preds = %14
  store i64 0, ptr %16, align 8
  store i32 0, ptr %11, align 8
  br label %cvAccessProjMem.exit.thread

18:                                               ; preds = %14
  store i64 %1, ptr %16, align 8
  store i32 1, ptr %11, align 8
  br label %cvAccessProjMem.exit.thread

cvAccessProjMem.exit.thread:                      ; preds = %9, %4, %12, %18, %17
  %.0 = phi i32 [ 0, %17 ], [ 0, %18 ], [ 0, %12 ], [ -29, %9 ], [ -21, %4 ]
  ret i32 %.0
}